target datalayout = "e-m:e-p270:32:32-p271:32:32-p272:64:64-i64:64-i128:128-f80:128-n8:16:32:64-S128"
target triple = "x86_64-pc-linux-gnu"

%"class.QtPrivate::RefCount" = type { %class.QBasicAtomicInteger }
%class.QBasicAtomicInteger = type { %"struct.std::atomic" }
%"struct.std::atomic" = type { %"struct.std::__atomic_base" }
%"struct.std::__atomic_base" = type { i32 }
%struct.QMapDataBase = type { %"class.QtPrivate::RefCount", i32, %struct.QMapNodeBase, ptr }
%struct.QMapNodeBase = type { i64, ptr, ptr }
%class.QWidget = type { %class.QObject, %class.QPaintDevice, ptr }
%class.QObject = type { ptr, %class.QScopedPointer }
%class.QScopedPointer = type { ptr }
%class.QPaintDevice = type { ptr, i16, ptr }
%class.QString = type { ptr }
%class.MLRenderingParametersTab = type { %class.QTabWidget, i32, %class.QMap.10, %class.QVector }
%class.QTabWidget = type { %class.QWidget }
%class.QMap.10 = type { ptr }
%class.QVector = type { ptr }
%struct.QMapNode.13 = type { %struct.QMapNodeBase, %class.QString, ptr }
%"class.QMap<QString, MLRenderingParametersFrame *>::const_iterator" = type { ptr }

; Function Attrs: mustprogress nounwind uwtable
define linkonce_odr noundef ptr @_ZNK8QMapDataI7QStringP26MLRenderingParametersFrameE4rootEv(ptr noundef nonnull align 8 dereferenceable(40) %0) #4 comdat align 2 {
  %2 = alloca ptr, align 8
  store ptr %0, ptr %2, align 8
  %3 = load ptr, ptr %2, align 8
  %4 = getelementptr inbounds %struct.QMapDataBase, ptr %3, i32 0, i32 2
  %5 = getelementptr inbounds %struct.QMapNodeBase, ptr %4, i32 0, i32 1
  %6 = load ptr, ptr %5, align 8
  ret ptr %6
}

; Function Attrs: mustprogress uwtable
define linkonce_odr noundef ptr @_ZNK8QMapNodeI7QStringP26MLRenderingParametersFrameE8nextNodeEv(ptr noundef nonnull align 8 dereferenceable(40) %0) #5 comdat align 2 {
  %2 = alloca ptr, align 8
  store ptr %0, ptr %2, align 8
  %3 = load ptr, ptr %2, align 8
  %4 = call noundef ptr @_ZNK12QMapNodeBase8nextNodeEv(ptr noundef nonnull align 8 dereferenceable(24) %3)
  ret ptr %4
}

; Function Attrs: mustprogress nounwind uwtable
define linkonce_odr noundef ptr @_ZN8QMapDataI7QStringP26MLRenderingParametersFrameE3endEv(ptr noundef nonnull align 8 dereferenceable(40) %0) #4 comdat align 2 {
  %2 = alloca ptr, align 8
  store ptr %0, ptr %2, align 8
  %3 = load ptr, ptr %2, align 8
  %4 = getelementptr inbounds %struct.QMapDataBase, ptr %3, i32 0, i32 2
  ret ptr %4
}

; Function Attrs: mustprogress nounwind uwtable
define linkonce_odr void @_ZN4QMapI7QStringP26MLRenderingParametersFrameE14const_iteratorC2EPK8QMapNodeIS0_S2_E(ptr noundef nonnull align 8 dereferenceable(8) %0, ptr noundef %1) unnamed_addr #4 comdat align 2 {
  %3 = alloca ptr, align 8
  %4 = alloca ptr, align 8
  store ptr %0, ptr %3, align 8
  store ptr %1, ptr %4, align 8
  %5 = load ptr, ptr %3, align 8
  %6 = getelementptr inbounds %"class.QMap<QString, MLRenderingParametersFrame *>::const_iterator", ptr %5, i32 0, i32 0
  %7 = load ptr, ptr %4, align 8
  store ptr %7, ptr %6, align 8
  ret void
}

; Function Attrs: mustprogress uwtable
define linkonce_odr noundef ptr @_ZN8QMapDataI7QStringP26MLRenderingParametersFrameE5beginEv(ptr noundef nonnull align 8 dereferenceable(40) %0) #5 comdat align 2 {
  %2 = alloca ptr, align 8
  %3 = alloca ptr, align 8
  store ptr %0, ptr %3, align 8
  %4 = load ptr, ptr %3, align 8
  %5 = call noundef ptr @_ZNK8QMapDataI7QStringP26MLRenderingParametersFrameE4rootEv(ptr noundef nonnull align 8 dereferenceable(40) %4)
  %6 = icmp ne ptr %5, null
  br i1 %6, label %7, label %10

7:                                                ; preds = %1
  %8 = getelementptr inbounds %struct.QMapDataBase, ptr %4, i32 0, i32 3
  %9 = load ptr, ptr %8, align 8
  store ptr %9, ptr %2, align 8
  br label %12

10:                                               ; preds = %1
  %11 = call noundef ptr @_ZN8QMapDataI7QStringP26MLRenderingParametersFrameE3endEv(ptr noundef nonnull align 8 dereferenceable(40) %4)
  store ptr %11, ptr %2, align 8
  br label %12

12:                                               ; preds = %10, %7
  %13 = load ptr, ptr %2, align 8
  ret ptr %13
}

; Function Attrs: mustprogress uwtable
define linkonce_odr noundef nonnull align 8 dereferenceable(8) ptr @_ZN4QMapI7QStringP26MLRenderingParametersFrameE14const_iteratorppEv(ptr noundef nonnull align 8 dereferenceable(8) %0) #5 comdat align 2 {
  %2 = alloca ptr, align 8
  store ptr %0, ptr %2, align 8
  %3 = load ptr, ptr %2, align 8
  %4 = getelementptr inbounds %"class.QMap<QString, MLRenderingParametersFrame *>::const_iterator", ptr %3, i32 0, i32 0
  %5 = load ptr, ptr %4, align 8
  %6 = call noundef ptr @_ZNK8QMapNodeI7QStringP26MLRenderingParametersFrameE8nextNodeEv(ptr noundef nonnull align 8 dereferenceable(40) %5)
  %7 = getelementptr inbounds %"class.QMap<QString, MLRenderingParametersFrame *>::const_iterator", ptr %3, i32 0, i32 0
  store ptr %6, ptr %7, align 8
  ret ptr %3
}

; Function Attrs: mustprogress nounwind uwtable
define linkonce_odr noundef nonnull align 8 dereferenceable(8) ptr @_ZNK4QMapI7QStringP26MLRenderingParametersFrameE14const_iterator5valueEv(ptr noundef nonnull align 8 dereferenceable(8) %0) #4 comdat align 2 {
  %2 = alloca ptr, align 8
  store ptr %0, ptr %2, align 8
  %3 = load ptr, ptr %2, align 8
  %4 = getelementptr inbounds %"class.QMap<QString, MLRenderingParametersFrame *>::const_iterator", ptr %3, i32 0, i32 0
  %5 = load ptr, ptr %4, align 8
  %6 = getelementptr inbounds %struct.QMapNode.13, ptr %5, i32 0, i32 2
  ret ptr %6
}

; Function Attrs: mustprogress nounwind uwtable
define linkonce_odr noundef zeroext i1 @_ZNK4QMapI7QStringP26MLRenderingParametersFrameE14const_iteratorneERKS4_(ptr noundef nonnull align 8 dereferenceable(8) %0, ptr noundef nonnull align 8 dereferenceable(8) %1) #4 comdat align 2 {
  %3 = alloca ptr, align 8
  %4 = alloca ptr, align 8
  store ptr %0, ptr %3, align 8
  store ptr %1, ptr %4, align 8
  %5 = load ptr, ptr %3, align 8
  %6 = getelementptr inbounds %"class.QMap<QString, MLRenderingParametersFrame *>::const_iterator", ptr %5, i32 0, i32 0
  %7 = load ptr, ptr %6, align 8
  %8 = load ptr, ptr %4, align 8
  %9 = getelementptr inbounds %"class.QMap<QString, MLRenderingParametersFrame *>::const_iterator", ptr %8, i32 0, i32 0
  %10 = load ptr, ptr %9, align 8
  %11 = icmp ne ptr %7, %10
  ret i1 %11
}

; Function Attrs: mustprogress uwtable
define linkonce_odr ptr @_ZNK4QMapI7QStringP26MLRenderingParametersFrameE3endEv(ptr noundef nonnull align 8 dereferenceable(8) %0) #5 comdat align 2 {
  %2 = alloca %"class.QMap<QString, MLRenderingParametersFrame *>::const_iterator", align 8
  %3 = alloca ptr, align 8
  store ptr %0, ptr %3, align 8
  %4 = load ptr, ptr %3, align 8
  %5 = getelementptr inbounds %class.QMap.10, ptr %4, i32 0, i32 0
  %6 = load ptr, ptr %5, align 8
  %7 = call noundef ptr @_ZN8QMapDataI7QStringP26MLRenderingParametersFrameE3endEv(ptr noundef nonnull align 8 dereferenceable(40) %6)
  call void @_ZN4QMapI7QStringP26MLRenderingParametersFrameE14const_iteratorC2EPK8QMapNodeIS0_S2_E(ptr noundef nonnull align 8 dereferenceable(8) %2, ptr noundef %7)
  %8 = getelementptr inbounds %"class.QMap<QString, MLRenderingParametersFrame *>::const_iterator", ptr %2, i32 0, i32 0
  %9 = load ptr, ptr %8, align 8
  ret ptr %9
}

; Function Attrs: mustprogress uwtable
define linkonce_odr ptr @_ZNK4QMapI7QStringP26MLRenderingParametersFrameE5beginEv(ptr noundef nonnull align 8 dereferenceable(8) %0) #5 comdat align 2 {
  %2 = alloca %"class.QMap<QString, MLRenderingParametersFrame *>::const_iterator", align 8
  %3 = alloca ptr, align 8
  store ptr %0, ptr %3, align 8
  %4 = load ptr, ptr %3, align 8
  %5 = getelementptr inbounds %class.QMap.10, ptr %4, i32 0, i32 0
  %6 = load ptr, ptr %5, align 8
  %7 = call noundef ptr @_ZN8QMapDataI7QStringP26MLRenderingParametersFrameE5beginEv(ptr noundef nonnull align 8 dereferenceable(40) %6)
  call void @_ZN4QMapI7QStringP26MLRenderingParametersFrameE14const_iteratorC2EPK8QMapNodeIS0_S2_E(ptr noundef nonnull align 8 dereferenceable(8) %2, ptr noundef %7)
  %8 = getelementptr inbounds %"class.QMap<QString, MLRenderingParametersFrame *>::const_iterator", ptr %2, i32 0, i32 0
  %9 = load ptr, ptr %8, align 8
  ret ptr %9
}

; Function Attrs: mustprogress uwtable
define void @_ZNK24MLRenderingParametersTab37getCurrentRenderingDataAccordingToGUIER15MLRenderingData(ptr noundef nonnull align 8 dereferenceable(72) %0, ptr noundef nonnull align 8 dereferenceable(40) %1) #5 align 2 {
  %3 = alloca ptr, align 8
  %4 = alloca ptr, align 8
  %5 = alloca %"class.QMap<QString, MLRenderingParametersFrame *>::const_iterator", align 8
  %6 = alloca %"class.QMap<QString, MLRenderingParametersFrame *>::const_iterator", align 8
  store ptr %0, ptr %3, align 8
  store ptr %1, ptr %4, align 8
  %7 = load ptr, ptr %3, align 8
  %8 = getelementptr inbounds %class.MLRenderingParametersTab, ptr %7, i32 0, i32 2
  %9 = call ptr @_ZNK4QMapI7QStringP26MLRenderingParametersFrameE5beginEv(ptr noundef nonnull align 8 dereferenceable(8) %8)
  %10 = getelementptr inbounds %"class.QMap<QString, MLRenderingParametersFrame *>::const_iterator", ptr %5, i32 0, i32 0
  store ptr %9, ptr %10, align 8
  br label %11

11:                                               ; preds = %28, %2
  %12 = getelementptr inbounds %class.MLRenderingParametersTab, ptr %7, i32 0, i32 2
  %13 = call ptr @_ZNK4QMapI7QStringP26MLRenderingParametersFrameE3endEv(ptr noundef nonnull align 8 dereferenceable(8) %12)
  %14 = getelementptr inbounds %"class.QMap<QString, MLRenderingParametersFrame *>::const_iterator", ptr %6, i32 0, i32 0
  store ptr %13, ptr %14, align 8
  %15 = call noundef zeroext i1 @_ZNK4QMapI7QStringP26MLRenderingParametersFrameE14const_iteratorneERKS4_(ptr noundef nonnull align 8 dereferenceable(8) %5, ptr noundef nonnull align 8 dereferenceable(8) %6)
  br i1 %15, label %16, label %30

16:                                               ; preds = %11
  %17 = call noundef nonnull align 8 dereferenceable(8) ptr @_ZNK4QMapI7QStringP26MLRenderingParametersFrameE14const_iterator5valueEv(ptr noundef nonnull align 8 dereferenceable(8) %5)
  %18 = load ptr, ptr %17, align 8
  %19 = icmp ne ptr %18, null
  br i1 %19, label %20, label %27

20:                                               ; preds = %16
  %21 = call noundef nonnull align 8 dereferenceable(8) ptr @_ZNK4QMapI7QStringP26MLRenderingParametersFrameE14const_iterator5valueEv(ptr noundef nonnull align 8 dereferenceable(8) %5)
  %22 = load ptr, ptr %21, align 8
  %23 = load ptr, ptr %4, align 8
  %24 = load ptr, ptr %22, align 8
  %25 = getelementptr inbounds ptr, ptr %24, i64 54
  %26 = load ptr, ptr %25, align 8
  call void %26(ptr noundef nonnull align 8 dereferenceable(52) %22, ptr noundef nonnull align 8 dereferenceable(40) %23)
  br label %27

27:                                               ; preds = %20, %16
  br label %28

28:                                               ; preds = %27
  %29 = call noundef nonnull align 8 dereferenceable(8) ptr @_ZN4QMapI7QStringP26MLRenderingParametersFrameE14const_iteratorppEv(ptr noundef nonnull align 8 dereferenceable(8) %5)
  br label %11, !llvm.loop !38

30:                                               ; preds = %11
  ret void
}