; Function Attrs: mustprogress uwtable
define void @_ZNK24MLRenderingParametersTab37getCurrentRenderingDataAccordingToGUIER15MLRenderingData(ptr nocapture noundef nonnull readonly align 8 dereferenceable(72) %0, ptr noundef nonnull align 8 dereferenceable(40) %1) local_unnamed_addr #3 align 2 {
  %3 = getelementptr inbounds i8, ptr %0, i64 56
  %4 = load ptr, ptr %3, align 8
  %5 = getelementptr inbounds i8, ptr %4, i64 16
  %6 = load ptr, ptr %5, align 8
  %.not.i.i = icmp eq ptr %6, null
  %7 = getelementptr inbounds i8, ptr %4, i64 32
  %8 = load ptr, ptr %7, align 8
  %9 = getelementptr inbounds i8, ptr %4, i64 8
  %.not679 = icmp eq ptr %8, %9
  %.not67 = select i1 %.not.i.i, i1 true, i1 %.not679
  br i1 %.not67, label %._crit_edge, label %.lr.ph

.lr.ph:                                           ; preds = %2, %16
  %.sroa.02.08 = phi ptr [ %17, %16 ], [ %8, %2 ]
  %10 = getelementptr inbounds i8, ptr %.sroa.02.08, i64 32
  %11 = load ptr, ptr %10, align 8
  %.not = icmp eq ptr %11, null
  br i1 %.not, label %16, label %12

12:                                               ; preds = %.lr.ph
  %13 = load ptr, ptr %11, align 8
  %14 = getelementptr inbounds i8, ptr %13, i64 432
  %15 = load ptr, ptr %14, align 8
  tail call void %15(ptr noundef nonnull align 8 dereferenceable(52) %11, ptr noundef nonnull align 8 dereferenceable(40) %1)
  br label %16

16:                                               ; preds = %.lr.ph, %12
  %17 = tail call noundef ptr @_ZNK12QMapNodeBase8nextNodeEv(ptr noundef nonnull align 8 dereferenceable(24) %.sroa.02.08)
  %18 = load ptr, ptr %3, align 8
  %19 = getelementptr inbounds i8, ptr %18, i64 8
  %.not6 = icmp eq ptr %17, %19
  br i1 %.not6, label %._crit_edge, label %.lr.ph, !llvm.loop !104

._crit_edge:                                      ; preds = %16, %2
  ret void
}